target datalayout = "e-m:e-p270:32:32-p271:32:32-p272:64:64-i64:64-i128:128-f80:128-n8:16:32:64-S128"
target triple = "x86_64-pc-linux-gnu"

%struct.UConverter = type { ptr, ptr, ptr, ptr, ptr, ptr, ptr, i32, i8, i8, i8, i8, i8, [7 x i8], i32, i32, i32, i32, i8, i8, i8, i8, i8, i8, i8, i8, [8 x i8], [32 x i8], [2 x i16], [2 x i16], [32 x i16], i32, [19 x i16], [31 x i8], i8, i8, i8, i32 }
%struct.UConverterDataHZ = type { ptr, i32, i32, i8, i8, i8, i8 }
%struct.UConverterFromUnicodeArgs = type { i16, i8, ptr, ptr, ptr, ptr, ptr, ptr }

; Function Attrs: mustprogress uwtable
define internal void @_ZL12_HZ_WriteSubP25UConverterFromUnicodeArgsiP10UErrorCode(ptr noundef %0, i32 noundef %1, ptr noundef %2) #0 {
  %4 = alloca ptr, align 8
  %5 = alloca i32, align 4
  %6 = alloca ptr, align 8
  %7 = alloca ptr, align 8
  %8 = alloca ptr, align 8
  %9 = alloca ptr, align 8
  %10 = alloca [4 x i8], align 1
  store ptr %0, ptr %4, align 8, !tbaa !8
  store i32 %1, ptr %5, align 4, !tbaa !43
  store ptr %2, ptr %6, align 8, !tbaa !8
  call void @llvm.lifetime.start.p0(i64 8, ptr %7) #7
  %11 = load ptr, ptr %4, align 8, !tbaa !8
  %12 = getelementptr inbounds nuw %struct.UConverterFromUnicodeArgs, ptr %11, i32 0, i32 2
  %13 = load ptr, ptr %12, align 8, !tbaa !63
  store ptr %13, ptr %7, align 8, !tbaa !3
  call void @llvm.lifetime.start.p0(i64 8, ptr %8) #7
  %14 = load ptr, ptr %7, align 8, !tbaa !3
  %15 = getelementptr inbounds nuw %struct.UConverter, ptr %14, i32 0, i32 2
  %16 = load ptr, ptr %15, align 8, !tbaa !23
  store ptr %16, ptr %8, align 8, !tbaa !8
  call void @llvm.lifetime.start.p0(i64 8, ptr %9) #7
  call void @llvm.lifetime.start.p0(i64 4, ptr %10) #7
  %17 = getelementptr inbounds [4 x i8], ptr %10, i64 0, i64 0
  store ptr %17, ptr %9, align 8, !tbaa !39
  %18 = load ptr, ptr %8, align 8, !tbaa !8
  %19 = getelementptr inbounds nuw %struct.UConverterDataHZ, ptr %18, i32 0, i32 5
  %20 = load i8, ptr %19, align 2, !tbaa !34
  %21 = icmp ne i8 %20, 0
  br i1 %21, label %22, label %29

22:                                               ; preds = %3
  %23 = load ptr, ptr %9, align 8, !tbaa !39
  %24 = getelementptr inbounds nuw i8, ptr %23, i32 1
  store ptr %24, ptr %9, align 8, !tbaa !39
  store i8 126, ptr %23, align 1, !tbaa !45
  %25 = load ptr, ptr %9, align 8, !tbaa !39
  %26 = getelementptr inbounds nuw i8, ptr %25, i32 1
  store ptr %26, ptr %9, align 8, !tbaa !39
  store i8 125, ptr %25, align 1, !tbaa !45
  %27 = load ptr, ptr %8, align 8, !tbaa !8
  %28 = getelementptr inbounds nuw %struct.UConverterDataHZ, ptr %27, i32 0, i32 5
  store i8 0, ptr %28, align 2, !tbaa !34
  br label %29

29:                                               ; preds = %22, %3
  %30 = load ptr, ptr %7, align 8, !tbaa !3
  %31 = getelementptr inbounds nuw %struct.UConverter, ptr %30, i32 0, i32 5
  %32 = load ptr, ptr %31, align 8, !tbaa !69
  %33 = getelementptr inbounds i8, ptr %32, i64 0
  %34 = load i8, ptr %33, align 1, !tbaa !45
  %35 = load ptr, ptr %9, align 8, !tbaa !39
  %36 = getelementptr inbounds nuw i8, ptr %35, i32 1
  store ptr %36, ptr %9, align 8, !tbaa !39
  store i8 %34, ptr %35, align 1, !tbaa !45
  %37 = load ptr, ptr %4, align 8, !tbaa !8
  %38 = getelementptr inbounds [4 x i8], ptr %10, i64 0, i64 0
  %39 = load ptr, ptr %9, align 8, !tbaa !39
  %40 = getelementptr inbounds [4 x i8], ptr %10, i64 0, i64 0
  %41 = ptrtoint ptr %39 to i64
  %42 = ptrtoint ptr %40 to i64
  %43 = sub i64 %41, %42
  %44 = trunc i64 %43 to i32
  %45 = load i32, ptr %5, align 4, !tbaa !43
  %46 = load ptr, ptr %6, align 8, !tbaa !8
  call void @ucnv_cbFromUWriteBytes_77(ptr noundef %37, ptr noundef %38, i32 noundef %44, i32 noundef %45, ptr noundef %46)
  call void @llvm.lifetime.end.p0(i64 4, ptr %10) #7
  call void @llvm.lifetime.end.p0(i64 8, ptr %9) #7
  call void @llvm.lifetime.end.p0(i64 8, ptr %8) #7
  call void @llvm.lifetime.end.p0(i64 8, ptr %7) #7
  ret void
}